; Function Attrs: nounwind uwtable
define internal range(i32 0, 2) i32 @Scl_CommandPrintBuf(ptr noundef %0, i32 noundef %1, ptr noundef %2) #0 {
  %4 = tail call ptr @Abc_FrameReadNtk(ptr noundef %0) #12
  tail call void (...) @Extra_UtilGetoptReset() #12
  br label %5

5:                                                ; preds = %7, %3
  %.0 = phi i32 [ 0, %3 ], [ %8, %7 ]
  %6 = tail call i32 @Extra_UtilGetopt(i32 noundef %1, ptr noundef %2, ptr noundef nonnull @.str.102) #12
  switch i32 %6, label %38 [
    i32 -1, label %9
    i32 118, label %7
  ]

7:                                                ; preds = %5
  %8 = xor i32 %.0, 1
  br label %5, !llvm.loop !118

9:                                                ; preds = %5
  %10 = tail call ptr @Abc_FrameReadNtk(ptr noundef %0) #12
  %11 = icmp eq ptr %10, null
  br i1 %11, label %12, label %16

12:                                               ; preds = %9
  %13 = getelementptr inbounds nuw i8, ptr %0, i64 136
  %14 = load ptr, ptr %13, align 8, !tbaa !84
  %15 = tail call i64 @fwrite(ptr nonnull @.str.88, i64 29, i64 1, ptr %14)
  br label %49

16:                                               ; preds = %9
  %17 = tail call ptr @Abc_FrameReadNtk(ptr noundef %0) #12
  %18 = getelementptr i8, ptr %17, i64 4
  %.val = load i32, ptr %18, align 4, !tbaa !92
  %.not = icmp eq i32 %.val, 4
  br i1 %.not, label %23, label %19

19:                                               ; preds = %16
  %20 = getelementptr inbounds nuw i8, ptr %0, i64 136
  %21 = load ptr, ptr %20, align 8, !tbaa !84
  %22 = tail call i64 @fwrite(ptr nonnull @.str.89, i64 35, i64 1, ptr %21)
  br label %49

23:                                               ; preds = %16
  %24 = tail call ptr @Abc_FrameReadNtk(ptr noundef %0) #12
  %25 = tail call i32 @Abc_SclCheckNtk(ptr noundef %24, i32 noundef 0) #12
  %.not25 = icmp eq i32 %25, 0
  br i1 %.not25, label %26, label %30

26:                                               ; preds = %23
  %27 = getelementptr inbounds nuw i8, ptr %0, i64 136
  %28 = load ptr, ptr %27, align 8, !tbaa !84
  %29 = tail call i64 @fwrite(ptr nonnull @.str.94, i64 57, i64 1, ptr %28)
  br label %49

30:                                               ; preds = %23
  %31 = getelementptr inbounds nuw i8, ptr %0, i64 240
  %32 = load ptr, ptr %31, align 8, !tbaa !85
  %.not26 = icmp eq ptr %32, null
  br i1 %.not26, label %35, label %33

33:                                               ; preds = %30
  %34 = tail call i32 @Abc_SclHasDelayInfo(ptr noundef nonnull %32) #12
  %.not27 = icmp eq i32 %34, 0
  br i1 %.not27, label %35, label %36

35:                                               ; preds = %33, %30
  tail call void (i32, ptr, ...) @Abc_Print(i32 noundef -1, ptr noundef nonnull @.str.118)
  br label %49

36:                                               ; preds = %33
  %37 = load ptr, ptr %31, align 8, !tbaa !85
  tail call void @Abc_SclPrintBuffers(ptr noundef %37, ptr noundef %4, i32 noundef %.0) #12
  br label %49

38:                                               ; preds = %5
  %39 = getelementptr inbounds nuw i8, ptr %0, i64 136
  %40 = load ptr, ptr %39, align 8, !tbaa !84
  %41 = tail call i64 @fwrite(ptr nonnull @.str.160, i64 23, i64 1, ptr %40)
  %42 = load ptr, ptr %39, align 8, !tbaa !84
  %43 = tail call i64 @fwrite(ptr nonnull @.str.161, i64 55, i64 1, ptr %42)
  %44 = load ptr, ptr %39, align 8, !tbaa !84
  %.not28 = icmp eq i32 %.0, 0
  %45 = select i1 %.not28, ptr @.str.40, ptr @.str.39
  %46 = tail call i32 (ptr, ptr, ...) @fprintf(ptr noundef %44, ptr noundef nonnull @.str.74, ptr noundef nonnull %45) #12
  %47 = load ptr, ptr %39, align 8, !tbaa !84
  %48 = tail call i64 @fwrite(ptr nonnull @.str.86, i64 36, i64 1, ptr %47)
  br label %49

49:                                               ; preds = %38, %36, %35, %26, %19, %12
  %.021 = phi i32 [ 1, %38 ], [ 1, %12 ], [ 0, %36 ], [ 1, %35 ], [ 1, %26 ], [ 1, %19 ]
  ret i32 %.021
}